target datalayout = "e-m:e-p270:32:32-p271:32:32-p272:64:64-i64:64-i128:128-f80:128-n8:16:32:64-S128"
target triple = "x86_64-pc-linux-gnu"

%struct.AVFormatContext = type { ptr, ptr, ptr, ptr, ptr, i32, i32, ptr, i32, ptr, i32, ptr, ptr, i64, i64, i64, i32, i32, i32, i64, i64, ptr, i32, i32, ptr, i32, i32, i32, i32, ptr, i64, i32, i32, %struct.AVIOInterruptCB, i32, i32, i32, i32, i64, i32, i32, i32, i32, i32, i32, i32, i32, i32, i32, i32, i32, i64, i32, i32, i32, i32, i32, ptr, ptr, ptr, ptr, i32, ptr, ptr, ptr, ptr, i32, ptr, ptr, i64, ptr, ptr, ptr, i64 }
%struct.AVIOInterruptCB = type { ptr, ptr }
%struct.SWFEncContext = type { i64, i64, i64, i32, i32, i32, i32, i32, ptr, ptr, ptr, ptr }
%struct.AVIOContext = type { ptr, ptr, i32, ptr, ptr, ptr, ptr, ptr, ptr, i64, i32, i32, i32, i32, i32, i64, ptr, ptr, ptr, ptr, i32, i32, ptr, ptr, ptr, i32, ptr, i64, i64 }

; Function Attrs: alwaysinline nounwind uwtable
define internal i64 @avio_tell(ptr noundef %0) #4 {
  %2 = alloca ptr, align 8
  store ptr %0, ptr %2, align 8, !tbaa !29
  %3 = load ptr, ptr %2, align 8, !tbaa !29
  %4 = call i64 @avio_seek(ptr noundef %3, i64 noundef 0, i32 noundef 1)
  ret i64 %4
}

; Function Attrs: nounwind uwtable
define internal void @put_swf_tag(ptr noundef %0, i32 noundef %1) #0 {
  %3 = alloca ptr, align 8
  %4 = alloca i32, align 4
  %5 = alloca ptr, align 8
  %6 = alloca ptr, align 8
  store ptr %0, ptr %3, align 8, !tbaa !4
  store i32 %1, ptr %4, align 4, !tbaa !37
  call void @llvm.lifetime.start.p0(i64 8, ptr %5) #8
  %7 = load ptr, ptr %3, align 8, !tbaa !4
  %8 = getelementptr inbounds nuw %struct.AVFormatContext, ptr %7, i32 0, i32 3
  %9 = load ptr, ptr %8, align 8, !tbaa !9
  store ptr %9, ptr %5, align 8, !tbaa !26
  call void @llvm.lifetime.start.p0(i64 8, ptr %6) #8
  %10 = load ptr, ptr %3, align 8, !tbaa !4
  %11 = getelementptr inbounds nuw %struct.AVFormatContext, ptr %10, i32 0, i32 4
  %12 = load ptr, ptr %11, align 8, !tbaa !28
  store ptr %12, ptr %6, align 8, !tbaa !29
  %13 = load ptr, ptr %6, align 8, !tbaa !29
  %14 = call i64 @avio_tell(ptr noundef %13)
  %15 = load ptr, ptr %5, align 8, !tbaa !26
  %16 = getelementptr inbounds nuw %struct.SWFEncContext, ptr %15, i32 0, i32 1
  store i64 %14, ptr %16, align 8, !tbaa !79
  %17 = load i32, ptr %4, align 4, !tbaa !37
  %18 = load ptr, ptr %5, align 8, !tbaa !26
  %19 = getelementptr inbounds nuw %struct.SWFEncContext, ptr %18, i32 0, i32 7
  store i32 %17, ptr %19, align 8, !tbaa !80
  %20 = load i32, ptr %4, align 4, !tbaa !37
  %21 = and i32 %20, 256
  %22 = icmp ne i32 %21, 0
  br i1 %22, label %23, label %26

23:                                               ; preds = %2
  %24 = load ptr, ptr %6, align 8, !tbaa !29
  call void @avio_wl16(ptr noundef %24, i32 noundef 0)
  %25 = load ptr, ptr %6, align 8, !tbaa !29
  call void @avio_wl32(ptr noundef %25, i32 noundef 0)
  br label %28

26:                                               ; preds = %2
  %27 = load ptr, ptr %6, align 8, !tbaa !29
  call void @avio_wl16(ptr noundef %27, i32 noundef 0)
  br label %28

28:                                               ; preds = %26, %23
  call void @llvm.lifetime.end.p0(i64 8, ptr %6) #8
  call void @llvm.lifetime.end.p0(i64 8, ptr %5) #8
  ret void
}

; Function Attrs: nounwind uwtable
define internal i32 @swf_write_trailer(ptr noundef %0) #0 {
  %2 = alloca ptr, align 8
  %3 = alloca ptr, align 8
  %4 = alloca ptr, align 8
  %5 = alloca i32, align 4
  store ptr %0, ptr %2, align 8, !tbaa !4
  call void @llvm.lifetime.start.p0(i64 8, ptr %3) #8
  %6 = load ptr, ptr %2, align 8, !tbaa !4
  %7 = getelementptr inbounds nuw %struct.AVFormatContext, ptr %6, i32 0, i32 3
  %8 = load ptr, ptr %7, align 8, !tbaa !9
  store ptr %8, ptr %3, align 8, !tbaa !26
  call void @llvm.lifetime.start.p0(i64 8, ptr %4) #8
  %9 = load ptr, ptr %2, align 8, !tbaa !4
  %10 = getelementptr inbounds nuw %struct.AVFormatContext, ptr %9, i32 0, i32 4
  %11 = load ptr, ptr %10, align 8, !tbaa !28
  store ptr %11, ptr %4, align 8, !tbaa !29
  call void @llvm.lifetime.start.p0(i64 4, ptr %5) #8
  %12 = load ptr, ptr %2, align 8, !tbaa !4
  call void @put_swf_tag(ptr noundef %12, i32 noundef 0)
  %13 = load ptr, ptr %2, align 8, !tbaa !4
  call void @put_swf_end_tag(ptr noundef %13)
  %14 = load ptr, ptr %2, align 8, !tbaa !4
  %15 = getelementptr inbounds nuw %struct.AVFormatContext, ptr %14, i32 0, i32 4
  %16 = load ptr, ptr %15, align 8, !tbaa !28
  %17 = getelementptr inbounds nuw %struct.AVIOContext, ptr %16, i32 0, i32 20
  %18 = load i32, ptr %17, align 8, !tbaa !76
  %19 = and i32 %18, 1
  %20 = icmp ne i32 %19, 0
  br i1 %20, label %21, label %62

21:                                               ; preds = %1
  %22 = load ptr, ptr %3, align 8, !tbaa !26
  %23 = getelementptr inbounds nuw %struct.SWFEncContext, ptr %22, i32 0, i32 10
  %24 = load ptr, ptr %23, align 8, !tbaa !55
  %25 = icmp ne ptr %24, null
  br i1 %25, label %26, label %62

26:                                               ; preds = %21
  %27 = load ptr, ptr %4, align 8, !tbaa !29
  %28 = call i64 @avio_tell(ptr noundef %27)
  %29 = trunc i64 %28 to i32
  store i32 %29, ptr %5, align 4, !tbaa !37
  %30 = load ptr, ptr %4, align 8, !tbaa !29
  %31 = call i64 @avio_seek(ptr noundef %30, i64 noundef 4, i32 noundef 0)
  %32 = load ptr, ptr %4, align 8, !tbaa !29
  %33 = load i32, ptr %5, align 4, !tbaa !37
  call void @avio_wl32(ptr noundef %32, i32 noundef %33)
  %34 = load ptr, ptr %4, align 8, !tbaa !29
  %35 = load ptr, ptr %3, align 8, !tbaa !26
  %36 = getelementptr inbounds nuw %struct.SWFEncContext, ptr %35, i32 0, i32 0
  %37 = load i64, ptr %36, align 8, !tbaa !68
  %38 = call i64 @avio_seek(ptr noundef %34, i64 noundef %37, i32 noundef 0)
  %39 = load ptr, ptr %4, align 8, !tbaa !29
  %40 = load ptr, ptr %3, align 8, !tbaa !26
  %41 = getelementptr inbounds nuw %struct.SWFEncContext, ptr %40, i32 0, i32 6
  %42 = load i32, ptr %41, align 4, !tbaa !36
  call void @avio_wl16(ptr noundef %39, i32 noundef %42)
  %43 = load ptr, ptr %3, align 8, !tbaa !26
  %44 = getelementptr inbounds nuw %struct.SWFEncContext, ptr %43, i32 0, i32 2
  %45 = load i64, ptr %44, align 8, !tbaa !78
  %46 = icmp ne i64 %45, 0
  br i1 %46, label %47, label %57

47:                                               ; preds = %26
  %48 = load ptr, ptr %4, align 8, !tbaa !29
  %49 = load ptr, ptr %3, align 8, !tbaa !26
  %50 = getelementptr inbounds nuw %struct.SWFEncContext, ptr %49, i32 0, i32 2
  %51 = load i64, ptr %50, align 8, !tbaa !78
  %52 = call i64 @avio_seek(ptr noundef %48, i64 noundef %51, i32 noundef 0)
  %53 = load ptr, ptr %4, align 8, !tbaa !29
  %54 = load ptr, ptr %3, align 8, !tbaa !26
  %55 = getelementptr inbounds nuw %struct.SWFEncContext, ptr %54, i32 0, i32 6
  %56 = load i32, ptr %55, align 4, !tbaa !36
  call void @avio_wl16(ptr noundef %53, i32 noundef %56)
  br label %57

57:                                               ; preds = %47, %26
  %58 = load ptr, ptr %4, align 8, !tbaa !29
  %59 = load i32, ptr %5, align 4, !tbaa !37
  %60 = sext i32 %59 to i64
  %61 = call i64 @avio_seek(ptr noundef %58, i64 noundef %60, i32 noundef 0)
  br label %62

62:                                               ; preds = %57, %21, %1
  call void @llvm.lifetime.end.p0(i64 4, ptr %5) #8
  call void @llvm.lifetime.end.p0(i64 8, ptr %4) #8
  call void @llvm.lifetime.end.p0(i64 8, ptr %3) #8
  ret i32 0
}