; Function Attrs: nounwind uwtable
define internal noundef i32 @swf_write_trailer(ptr noundef readonly captures(none) %0) #0 {
  %2 = getelementptr inbounds nuw i8, ptr %0, i64 24
  %3 = load ptr, ptr %2, align 8, !tbaa !4
  %4 = getelementptr inbounds nuw i8, ptr %0, i64 32
  %5 = load ptr, ptr %4, align 8, !tbaa !24
  %6 = tail call i64 @avio_seek(ptr noundef %5, i64 noundef 0, i32 noundef 1) #6
  %7 = getelementptr inbounds nuw i8, ptr %3, i64 8
  store i64 %6, ptr %7, align 8, !tbaa !62
  %8 = getelementptr inbounds nuw i8, ptr %3, i64 40
  store i32 0, ptr %8, align 8, !tbaa !63
  tail call void @avio_wl16(ptr noundef %5, i32 noundef 0) #6
  %.val23 = load ptr, ptr %2, align 8, !tbaa !4
  %.val24 = load ptr, ptr %4, align 8, !tbaa !24
  tail call fastcc void @put_swf_end_tag(ptr %.val23, ptr %.val24)
  %9 = load ptr, ptr %4, align 8, !tbaa !24
  %10 = getelementptr inbounds nuw i8, ptr %9, i64 144
  %11 = load i32, ptr %10, align 8, !tbaa !77
  %12 = and i32 %11, 1
  %.not = icmp eq i32 %12, 0
  br i1 %.not, label %32, label %13

13:                                               ; preds = %1
  %14 = getelementptr inbounds nuw i8, ptr %3, i64 64
  %15 = load ptr, ptr %14, align 8, !tbaa !48
  %.not20 = icmp eq ptr %15, null
  br i1 %.not20, label %32, label %16

16:                                               ; preds = %13
  %17 = tail call i64 @avio_seek(ptr noundef %5, i64 noundef 0, i32 noundef 1) #6
  %18 = trunc i64 %17 to i32
  %19 = tail call i64 @avio_seek(ptr noundef %5, i64 noundef 4, i32 noundef 0) #6
  tail call void @avio_wl32(ptr noundef %5, i32 noundef %18) #6
  %20 = load i64, ptr %3, align 8, !tbaa !61
  %21 = tail call i64 @avio_seek(ptr noundef %5, i64 noundef %20, i32 noundef 0) #6
  %22 = getelementptr inbounds nuw i8, ptr %3, i64 36
  %23 = load i32, ptr %22, align 4, !tbaa !31
  tail call void @avio_wl16(ptr noundef %5, i32 noundef %23) #6
  %24 = getelementptr inbounds nuw i8, ptr %3, i64 16
  %25 = load i64, ptr %24, align 8, !tbaa !79
  %.not21 = icmp eq i64 %25, 0
  br i1 %.not21, label %29, label %26

26:                                               ; preds = %16
  %27 = tail call i64 @avio_seek(ptr noundef %5, i64 noundef %25, i32 noundef 0) #6
  %28 = load i32, ptr %22, align 4, !tbaa !31
  tail call void @avio_wl16(ptr noundef %5, i32 noundef %28) #6
  br label %29

29:                                               ; preds = %26, %16
  %sext = shl i64 %17, 32
  %30 = ashr exact i64 %sext, 32
  %31 = tail call i64 @avio_seek(ptr noundef %5, i64 noundef %30, i32 noundef 0) #6
  br label %32

32:                                               ; preds = %29, %13, %1
  ret i32 0
}